; Function Attrs: mustprogress uwtable
define hidden noundef ptr @_ZN3smt10theory_str10mk_RegexInEP4exprS2_(ptr noundef nonnull align 8 dereferenceable(1800) %0, ptr noundef %1, ptr noundef %2) local_unnamed_addr #4 align 2 {
  %4 = getelementptr inbounds nuw i8, ptr %0, i64 160
  %5 = load ptr, ptr %4, align 8, !tbaa !1126
  %6 = getelementptr inbounds nuw i8, ptr %0, i64 168
  %7 = load i32, ptr %6, align 8, !tbaa !165
  %8 = tail call noundef ptr @_ZN11ast_manager6mk_appEiiP4exprS1_(ptr noundef nonnull align 8 dereferenceable(976) %5, i32 noundef %7, i32 noundef 16, ptr noundef %1, ptr noundef %2)
  %9 = getelementptr inbounds nuw i8, ptr %0, i64 16
  %10 = load ptr, ptr %9, align 8, !tbaa !386
  tail call void @_ZN3smt7context11internalizeEP4exprb(ptr noundef nonnull align 8 dereferenceable(10544) %10, ptr noundef %8, i1 noundef zeroext false)
  tail call void @_ZN3smt10theory_str13set_up_axiomsEP4expr(ptr noundef nonnull align 8 dereferenceable(1800) %0, ptr noundef %8)
  ret ptr %8
}